target datalayout = "e-m:e-p270:32:32-p271:32:32-p272:64:64-i64:64-i128:128-f80:128-n8:16:32:64-S128"
target triple = "x86_64-pc-linux-gnu"

%struct.Abc_BddMan_ = type { i32, i32, i32, ptr, ptr, ptr, ptr, ptr, ptr, i32, i32, i32, i32, i64 }

@.str.2 = private unnamed_addr constant [5 x i8] c"%c%d\00", align 1
@.str.3 = private unnamed_addr constant [2 x i8] c" \00", align 1

; Function Attrs: inlinehint nounwind uwtable
define internal i32 @Abc_LitNotCond(i32 noundef %0, i32 noundef %1) #3 {
  %3 = alloca i32, align 4
  %4 = alloca i32, align 4
  store i32 %0, ptr %3, align 4, !tbaa !3
  store i32 %1, ptr %4, align 4, !tbaa !3
  %5 = load i32, ptr %3, align 4, !tbaa !3
  %6 = load i32, ptr %4, align 4, !tbaa !3
  %7 = icmp sgt i32 %6, 0
  %8 = zext i1 %7 to i32
  %9 = xor i32 %5, %8
  ret i32 %9
}

; Function Attrs: inlinehint nounwind uwtable
define internal i32 @Abc_LitIsCompl(i32 noundef %0) #3 {
  %2 = alloca i32, align 4
  store i32 %0, ptr %2, align 4, !tbaa !3
  %3 = load i32, ptr %2, align 4, !tbaa !3
  %4 = and i32 %3, 1
  ret i32 %4
}

; Function Attrs: inlinehint nounwind uwtable
define internal i32 @Abc_LitRegular(i32 noundef %0) #3 {
  %2 = alloca i32, align 4
  store i32 %0, ptr %2, align 4, !tbaa !3
  %3 = load i32, ptr %2, align 4, !tbaa !3
  %4 = and i32 %3, -2
  ret i32 %4
}

; Function Attrs: inlinehint nounwind uwtable
define internal i32 @Abc_Lit2Var(i32 noundef %0) #3 {
  %2 = alloca i32, align 4
  store i32 %0, ptr %2, align 4, !tbaa !3
  %3 = load i32, ptr %2, align 4, !tbaa !3
  %4 = ashr i32 %3, 1
  ret i32 %4
}

; Function Attrs: inlinehint nounwind uwtable
define internal i32 @Abc_BddThen(ptr noundef %0, i32 noundef %1) #3 {
  %3 = alloca ptr, align 8
  %4 = alloca i32, align 4
  store ptr %0, ptr %3, align 8, !tbaa !7
  store i32 %1, ptr %4, align 4, !tbaa !3
  %5 = load ptr, ptr %3, align 8, !tbaa !7
  %6 = getelementptr inbounds nuw %struct.Abc_BddMan_, ptr %5, i32 0, i32 6
  %7 = load ptr, ptr %6, align 8, !tbaa !21
  %8 = load i32, ptr %4, align 4, !tbaa !3
  %9 = call i32 @Abc_LitRegular(i32 noundef %8)
  %10 = sext i32 %9 to i64
  %11 = getelementptr inbounds i32, ptr %7, i64 %10
  %12 = load i32, ptr %11, align 4, !tbaa !3
  %13 = load i32, ptr %4, align 4, !tbaa !3
  %14 = call i32 @Abc_LitIsCompl(i32 noundef %13)
  %15 = call i32 @Abc_LitNotCond(i32 noundef %12, i32 noundef %14)
  ret i32 %15
}

; Function Attrs: inlinehint nounwind uwtable
define internal i32 @Abc_BddElse(ptr noundef %0, i32 noundef %1) #3 {
  %3 = alloca ptr, align 8
  %4 = alloca i32, align 4
  store ptr %0, ptr %3, align 8, !tbaa !7
  store i32 %1, ptr %4, align 4, !tbaa !3
  %5 = load ptr, ptr %3, align 8, !tbaa !7
  %6 = getelementptr inbounds nuw %struct.Abc_BddMan_, ptr %5, i32 0, i32 6
  %7 = load ptr, ptr %6, align 8, !tbaa !21
  %8 = load i32, ptr %4, align 4, !tbaa !3
  %9 = call i32 @Abc_LitRegular(i32 noundef %8)
  %10 = add nsw i32 %9, 1
  %11 = sext i32 %10 to i64
  %12 = getelementptr inbounds i32, ptr %7, i64 %11
  %13 = load i32, ptr %12, align 4, !tbaa !3
  %14 = load i32, ptr %4, align 4, !tbaa !3
  %15 = call i32 @Abc_LitIsCompl(i32 noundef %14)
  %16 = call i32 @Abc_LitNotCond(i32 noundef %13, i32 noundef %15)
  ret i32 %16
}

; Function Attrs: inlinehint nounwind uwtable
define internal i32 @Abc_BddVar(ptr noundef %0, i32 noundef %1) #3 {
  %3 = alloca ptr, align 8
  %4 = alloca i32, align 4
  store ptr %0, ptr %3, align 8, !tbaa !7
  store i32 %1, ptr %4, align 4, !tbaa !3
  %5 = load ptr, ptr %3, align 8, !tbaa !7
  %6 = getelementptr inbounds nuw %struct.Abc_BddMan_, ptr %5, i32 0, i32 7
  %7 = load ptr, ptr %6, align 8, !tbaa !23
  %8 = load i32, ptr %4, align 4, !tbaa !3
  %9 = call i32 @Abc_Lit2Var(i32 noundef %8)
  %10 = sext i32 %9 to i64
  %11 = getelementptr inbounds i8, ptr %7, i64 %10
  %12 = load i8, ptr %11, align 1, !tbaa !24
  %13 = zext i8 %12 to i32
  ret i32 %13
}

; Function Attrs: nounwind uwtable
define void @Abc_BddPrint_rec(ptr noundef %0, i32 noundef %1, ptr noundef %2) #0 {
  %4 = alloca ptr, align 8
  %5 = alloca i32, align 4
  %6 = alloca ptr, align 8
  %7 = alloca i32, align 4
  store ptr %0, ptr %4, align 8, !tbaa !7
  store i32 %1, ptr %5, align 4, !tbaa !3
  store ptr %2, ptr %6, align 8, !tbaa !32
  %8 = load i32, ptr %5, align 4, !tbaa !3
  %9 = icmp eq i32 %8, 0
  br i1 %9, label %10, label %11

10:                                               ; preds = %3
  br label %80

11:                                               ; preds = %3
  %12 = load i32, ptr %5, align 4, !tbaa !3
  %13 = icmp eq i32 %12, 1
  br i1 %13, label %14, label %51

14:                                               ; preds = %11
  call void @llvm.lifetime.start.p0(i64 4, ptr %7) #9
  store i32 0, ptr %7, align 4, !tbaa !3
  br label %15

15:                                               ; preds = %46, %14
  %16 = load i32, ptr %7, align 4, !tbaa !3
  %17 = load ptr, ptr %4, align 8, !tbaa !7
  %18 = getelementptr inbounds nuw %struct.Abc_BddMan_, ptr %17, i32 0, i32 0
  %19 = load i32, ptr %18, align 8, !tbaa !10
  %20 = icmp slt i32 %16, %19
  br i1 %20, label %21, label %49

21:                                               ; preds = %15
  %22 = load ptr, ptr %6, align 8, !tbaa !32
  %23 = load i32, ptr %7, align 4, !tbaa !3
  %24 = sext i32 %23 to i64
  %25 = getelementptr inbounds i32, ptr %22, i64 %24
  %26 = load i32, ptr %25, align 4, !tbaa !3
  %27 = icmp eq i32 %26, 0
  br i1 %27, label %35, label %28

28:                                               ; preds = %21
  %29 = load ptr, ptr %6, align 8, !tbaa !32
  %30 = load i32, ptr %7, align 4, !tbaa !3
  %31 = sext i32 %30 to i64
  %32 = getelementptr inbounds i32, ptr %29, i64 %31
  %33 = load i32, ptr %32, align 4, !tbaa !3
  %34 = icmp eq i32 %33, 1
  br i1 %34, label %35, label %45

35:                                               ; preds = %28, %21
  %36 = load ptr, ptr %6, align 8, !tbaa !32
  %37 = load i32, ptr %7, align 4, !tbaa !3
  %38 = sext i32 %37 to i64
  %39 = getelementptr inbounds i32, ptr %36, i64 %38
  %40 = load i32, ptr %39, align 4, !tbaa !3
  %41 = icmp ne i32 %40, 0
  %42 = select i1 %41, i32 43, i32 45
  %43 = load i32, ptr %7, align 4, !tbaa !3
  %44 = call i32 (ptr, ...) @printf(ptr noundef @.str.2, i32 noundef %42, i32 noundef %43)
  br label %45

45:                                               ; preds = %35, %28
  br label %46

46:                                               ; preds = %45
  %47 = load i32, ptr %7, align 4, !tbaa !3
  %48 = add nsw i32 %47, 1
  store i32 %48, ptr %7, align 4, !tbaa !3
  br label %15, !llvm.loop !41

49:                                               ; preds = %15
  %50 = call i32 (ptr, ...) @printf(ptr noundef @.str.3)
  call void @llvm.lifetime.end.p0(i64 4, ptr %7) #9
  br label %80

51:                                               ; preds = %11
  %52 = load ptr, ptr %6, align 8, !tbaa !32
  %53 = load ptr, ptr %4, align 8, !tbaa !7
  %54 = load i32, ptr %5, align 4, !tbaa !3
  %55 = call i32 @Abc_BddVar(ptr noundef %53, i32 noundef %54)
  %56 = sext i32 %55 to i64
  %57 = getelementptr inbounds i32, ptr %52, i64 %56
  store i32 0, ptr %57, align 4, !tbaa !3
  %58 = load ptr, ptr %4, align 8, !tbaa !7
  %59 = load ptr, ptr %4, align 8, !tbaa !7
  %60 = load i32, ptr %5, align 4, !tbaa !3
  %61 = call i32 @Abc_BddElse(ptr noundef %59, i32 noundef %60)
  %62 = load ptr, ptr %6, align 8, !tbaa !32
  call void @Abc_BddPrint_rec(ptr noundef %58, i32 noundef %61, ptr noundef %62)
  %63 = load ptr, ptr %6, align 8, !tbaa !32
  %64 = load ptr, ptr %4, align 8, !tbaa !7
  %65 = load i32, ptr %5, align 4, !tbaa !3
  %66 = call i32 @Abc_BddVar(ptr noundef %64, i32 noundef %65)
  %67 = sext i32 %66 to i64
  %68 = getelementptr inbounds i32, ptr %63, i64 %67
  store i32 1, ptr %68, align 4, !tbaa !3
  %69 = load ptr, ptr %4, align 8, !tbaa !7
  %70 = load ptr, ptr %4, align 8, !tbaa !7
  %71 = load i32, ptr %5, align 4, !tbaa !3
  %72 = call i32 @Abc_BddThen(ptr noundef %70, i32 noundef %71)
  %73 = load ptr, ptr %6, align 8, !tbaa !32
  call void @Abc_BddPrint_rec(ptr noundef %69, i32 noundef %72, ptr noundef %73)
  %74 = load ptr, ptr %6, align 8, !tbaa !32
  %75 = load ptr, ptr %4, align 8, !tbaa !7
  %76 = load i32, ptr %5, align 4, !tbaa !3
  %77 = call i32 @Abc_BddVar(ptr noundef %75, i32 noundef %76)
  %78 = sext i32 %77 to i64
  %79 = getelementptr inbounds i32, ptr %74, i64 %78
  store i32 -1, ptr %79, align 4, !tbaa !3
  br label %80

80:                                               ; preds = %51, %49, %10
  ret void
}