; Function Attrs: nofree nounwind uwtable
define void @Abc_BddPrint_rec(ptr noundef %0, i32 noundef %1, ptr noundef %2) local_unnamed_addr #0 {
  switch i32 %1, label %17 [
    i32 0, label %common.ret36
    i32 1, label %.preheader
  ]

.preheader:                                       ; preds = %3
  %4 = load i32, ptr %0, align 8, !tbaa !3
  %5 = icmp sgt i32 %4, 0
  br i1 %5, label %.lr.ph, label %._crit_edge

.lr.ph:                                           ; preds = %.preheader, %13
  %6 = phi i32 [ %14, %13 ], [ %4, %.preheader ]
  %indvars.iv = phi i64 [ %indvars.iv.next, %13 ], [ 0, %.preheader ]
  %7 = getelementptr inbounds nuw i32, ptr %2, i64 %indvars.iv
  %8 = load i32, ptr %7, align 4, !tbaa !23
  %switch = icmp ult i32 %8, 2
  br i1 %switch, label %9, label %13

9:                                                ; preds = %.lr.ph
  %.not = icmp eq i32 %8, 0
  %10 = select i1 %.not, i32 45, i32 43
  %11 = trunc nuw nsw i64 %indvars.iv to i32
  %12 = tail call i32 (ptr, ...) @printf(ptr noundef nonnull dereferenceable(1) @.str.2, i32 noundef %10, i32 noundef %11)
  %.pre = load i32, ptr %0, align 8, !tbaa !3
  br label %13

13:                                               ; preds = %.lr.ph, %9
  %14 = phi i32 [ %6, %.lr.ph ], [ %.pre, %9 ]
  %indvars.iv.next = add nuw nsw i64 %indvars.iv, 1
  %15 = sext i32 %14 to i64
  %16 = icmp slt i64 %indvars.iv.next, %15
  br i1 %16, label %.lr.ph, label %._crit_edge, !llvm.loop !38

._crit_edge:                                      ; preds = %13, %.preheader
  %putchar = tail call i32 @putchar(i32 32)
  br label %common.ret36

common.ret36:                                     ; preds = %3, %._crit_edge, %17
  ret void

17:                                               ; preds = %3
  %18 = getelementptr i8, ptr %0, i64 48
  %.val31 = load ptr, ptr %18, align 8, !tbaa !20
  %19 = ashr i32 %1, 1
  %20 = sext i32 %19 to i64
  %21 = getelementptr inbounds i8, ptr %.val31, i64 %20
  %22 = load i8, ptr %21, align 1, !tbaa !21
  %23 = zext i8 %22 to i64
  %24 = getelementptr inbounds nuw i32, ptr %2, i64 %23
  store i32 0, ptr %24, align 4, !tbaa !23
  %25 = getelementptr i8, ptr %0, i64 40
  %.val32 = load ptr, ptr %25, align 8, !tbaa !18
  %26 = and i32 %1, -2
  %27 = sext i32 %26 to i64
  %28 = getelementptr i32, ptr %.val32, i64 %27
  %29 = getelementptr i8, ptr %28, i64 4
  %30 = load i32, ptr %29, align 4, !tbaa !23
  %31 = and i32 %1, 1
  %32 = xor i32 %30, %31
  tail call void @Abc_BddPrint_rec(ptr noundef %0, i32 noundef %32, ptr noundef %2)
  %.val30 = load ptr, ptr %18, align 8, !tbaa !20
  %33 = getelementptr inbounds i8, ptr %.val30, i64 %20
  %34 = load i8, ptr %33, align 1, !tbaa !21
  %35 = zext i8 %34 to i64
  %36 = getelementptr inbounds nuw i32, ptr %2, i64 %35
  store i32 1, ptr %36, align 4, !tbaa !23
  %.val33 = load ptr, ptr %25, align 8, !tbaa !18
  %37 = getelementptr inbounds i32, ptr %.val33, i64 %27
  %38 = load i32, ptr %37, align 4, !tbaa !23
  %39 = xor i32 %38, %31
  tail call void @Abc_BddPrint_rec(ptr noundef %0, i32 noundef %39, ptr noundef %2)
  %.val = load ptr, ptr %18, align 8, !tbaa !20
  %40 = getelementptr inbounds i8, ptr %.val, i64 %20
  %41 = load i8, ptr %40, align 1, !tbaa !21
  %42 = zext i8 %41 to i64
  %43 = getelementptr inbounds nuw i32, ptr %2, i64 %42
  store i32 -1, ptr %43, align 4, !tbaa !23
  br label %common.ret36
}